(lp0
(dp1
S'y'
p2
I0
sS'x'
p3
I0
sS'x1'
p4
I1024
sS'name'
p5
S'./tiles/s0.png'
p6
sS'y1'
p7
I1024
sa(dp8
g2
I0
sg3
I1024
sg4
I2048
sg5
S'./tiles/s1.png'
p9
sg7
I2048
sa(dp10
g2
I0
sg3
I2048
sg4
I3072
sg5
S'./tiles/s2.png'
p11
sg7
I3072
sa(dp12
g2
I0
sg3
I3072
sg4
I4096
sg5
S'./tiles/s3.png'
p13
sg7
I4096
sa(dp14
g2
I1024
sg3
I0
sg4
I1024
sg5
S'./tiles/s4.png'
p15
sg7
I1024
sa(dp16
g2
I1024
sg3
I1024
sg4
I2048
sg5
S'./tiles/s5.png'
p17
sg7
I2048
sa(dp18
g2
I1024
sg3
I2048
sg4
I3072
sg5
S'./tiles/s6.png'
p19
sg7
I3072
sa(dp20
g2
I1024
sg3
I3072
sg4
I4096
sg5
S'./tiles/s7.png'
p21
sg7
I4096
sa.